; Function Attrs: mustprogress nounwind willreturn uwtable
define i32 @Aig_ObjRequiredLevel(ptr noundef readonly captures(none) %0, ptr noundef readonly captures(none) %1) local_unnamed_addr #0 {
  %3 = getelementptr inbounds nuw i8, ptr %0, i64 288
  %4 = load i32, ptr %3, align 8, !tbaa !27
  %5 = getelementptr inbounds nuw i8, ptr %0, i64 280
  %6 = load ptr, ptr %5, align 8, !tbaa !3
  %7 = getelementptr inbounds nuw i8, ptr %1, i64 36
  %8 = load i32, ptr %7, align 4, !tbaa !21
  %9 = add nsw i32 %8, 1
  %10 = getelementptr inbounds nuw i8, ptr %6, i64 4
  %11 = load i32, ptr %10, align 4, !tbaa !22
  %.not.i.not.i = icmp slt i32 %8, %11
  br i1 %.not.i.not.i, label %Aig_ObjReverseLevel.exit, label %12

12:                                               ; preds = %2
  %13 = load i32, ptr %6, align 8, !tbaa !24
  %14 = shl nsw i32 %13, 1
  %.not.i = icmp slt i32 %8, %14
  %.not.i.i.not.i = icmp sgt i32 %13, %8
  br i1 %.not.i, label %27, label %15

15:                                               ; preds = %12
  br i1 %.not.i.i.not.i, label %Vec_IntGrow.exit.i.i, label %16

16:                                               ; preds = %15
  %17 = getelementptr inbounds nuw i8, ptr %6, i64 8
  %18 = load ptr, ptr %17, align 8, !tbaa !25
  %.not9.i.i.i = icmp eq ptr %18, null
  %19 = sext i32 %9 to i64
  %20 = shl nsw i64 %19, 2
  br i1 %.not9.i.i.i, label %23, label %21

21:                                               ; preds = %16
  %22 = tail call ptr @realloc(ptr noundef nonnull %18, i64 noundef %20) #12
  br label %25

23:                                               ; preds = %16
  %24 = tail call noalias ptr @malloc(i64 noundef %20) #13
  br label %25

25:                                               ; preds = %23, %21
  %26 = phi ptr [ %22, %21 ], [ %24, %23 ]
  store ptr %26, ptr %17, align 8, !tbaa !25
  br label %Vec_IntGrow.exit.sink.split.i.i

27:                                               ; preds = %12
  br i1 %.not.i.i.not.i, label %Vec_IntGrow.exit.i.i, label %28

28:                                               ; preds = %27
  %29 = getelementptr inbounds nuw i8, ptr %6, i64 8
  %30 = load ptr, ptr %29, align 8, !tbaa !25
  %.not9.i21.i.i = icmp eq ptr %30, null
  %31 = sext i32 %14 to i64
  %32 = shl nsw i64 %31, 2
  br i1 %.not9.i21.i.i, label %35, label %33

33:                                               ; preds = %28
  %34 = tail call ptr @realloc(ptr noundef nonnull %30, i64 noundef %32) #12
  br label %37

35:                                               ; preds = %28
  %36 = tail call noalias ptr @malloc(i64 noundef %32) #13
  br label %37

37:                                               ; preds = %35, %33
  %38 = phi ptr [ %34, %33 ], [ %36, %35 ]
  store ptr %38, ptr %29, align 8, !tbaa !25
  br label %Vec_IntGrow.exit.sink.split.i.i

Vec_IntGrow.exit.sink.split.i.i:                  ; preds = %37, %25
  %.sink.i.i = phi i32 [ %14, %37 ], [ %9, %25 ]
  store i32 %.sink.i.i, ptr %6, align 8, !tbaa !24
  %.pre.i = load i32, ptr %10, align 4, !tbaa !22
  br label %Vec_IntGrow.exit.i.i

Vec_IntGrow.exit.i.i:                             ; preds = %Vec_IntGrow.exit.sink.split.i.i, %27, %15
  %39 = phi i32 [ %.pre.i, %Vec_IntGrow.exit.sink.split.i.i ], [ %11, %27 ], [ %11, %15 ]
  %.not4.i = icmp sgt i32 %39, %8
  br i1 %.not4.i, label %._crit_edge.i.i, label %.lr.ph.i.i

.lr.ph.i.i:                                       ; preds = %Vec_IntGrow.exit.i.i
  %40 = getelementptr inbounds nuw i8, ptr %6, i64 8
  %41 = load ptr, ptr %40, align 8, !tbaa !25
  %42 = sext i32 %39 to i64
  %43 = shl nsw i64 %42, 2
  %scevgep.i.i = getelementptr i8, ptr %41, i64 %43
  %44 = sub i32 %8, %39
  %45 = zext i32 %44 to i64
  %46 = shl nuw nsw i64 %45, 2
  %47 = add nuw nsw i64 %46, 4
  tail call void @llvm.memset.p0.i64(ptr noundef nonnull align 4 dereferenceable(1) %scevgep.i.i, i8 0, i64 %47, i1 false), !tbaa !26
  br label %._crit_edge.i.i

._crit_edge.i.i:                                  ; preds = %.lr.ph.i.i, %Vec_IntGrow.exit.i.i
  store i32 %9, ptr %10, align 4, !tbaa !22
  %.pre5.i = load ptr, ptr %5, align 8, !tbaa !3
  %.pre6.i = load i32, ptr %7, align 4, !tbaa !21
  br label %Aig_ObjReverseLevel.exit

Aig_ObjReverseLevel.exit:                         ; preds = %2, %._crit_edge.i.i
  %48 = phi i32 [ %8, %2 ], [ %.pre6.i, %._crit_edge.i.i ]
  %49 = phi ptr [ %6, %2 ], [ %.pre5.i, %._crit_edge.i.i ]
  %50 = add nsw i32 %4, 1
  %51 = getelementptr i8, ptr %49, i64 8
  %.val.i = load ptr, ptr %51, align 8, !tbaa !25
  %52 = sext i32 %48 to i64
  %53 = getelementptr inbounds i32, ptr %.val.i, i64 %52
  %54 = load i32, ptr %53, align 4, !tbaa !26
  %55 = sub i32 %50, %54
  ret i32 %55
}